; Function Attrs: mustprogress nounwind uwtable
define dso_local range(i40 0, 8589934592) i40 @_ZN4llvm8codeview22GlobalTypeTableBuilder7getNextENS0_9TypeIndexE(ptr noundef nonnull align 8 dereferenceable(144) %0, i32 %1) unnamed_addr #0 align 2 {
  %3 = add i32 %1, 1
  %4 = getelementptr inbounds nuw i8, ptr %0, i64 64
  %5 = tail call noundef i64 @_ZNK4llvm15SmallVectorBaseIjE4sizeEv(ptr noundef nonnull align 8 dereferenceable(16) %4) #13
  %6 = trunc i64 %5 to i32
  %7 = add i32 %6, 4095
  %.not = icmp eq i32 %1, %7
  %.sroa.2.0.insert.shift = select i1 %.not, i40 0, i40 4294967296
  %.sroa.05.0.insert.ext = zext i32 %3 to i40
  %.sroa.05.0.insert.insert = or disjoint i40 %.sroa.2.0.insert.shift, %.sroa.05.0.insert.ext
  ret i40 %.sroa.05.0.insert.insert
}